target datalayout = "e-m:e-p270:32:32-p271:32:32-p272:64:64-i64:64-i128:128-f80:128-n8:16:32:64-S128"
target triple = "x86_64-pc-linux-gnu"

%struct.lean_object = type { i32, i32 }

@l___private_Lean_Elab_Declaration_0__Lean_Elab_Command_isMutualPreambleCommand___closed__2 = internal global ptr null, align 8
@l___private_Lean_Elab_Declaration_0__Lean_Elab_Command_isMutualPreambleCommand___closed__4 = internal global ptr null, align 8
@l___private_Lean_Elab_Declaration_0__Lean_Elab_Command_isMutualPreambleCommand___closed__6 = internal global ptr null, align 8
@l___private_Lean_Elab_Declaration_0__Lean_Elab_Command_isMutualPreambleCommand___closed__8 = internal global ptr null, align 8
@l___private_Lean_Elab_Declaration_0__Lean_Elab_Command_isMutualPreambleCommand___closed__10 = internal global ptr null, align 8

; Function Attrs: alwaysinline nounwind uwtable
define internal void @lean_dec_ref(ptr noundef %0) #1 {
  %2 = alloca ptr, align 8
  store ptr %0, ptr %2, align 8, !tbaa !8
  %3 = load ptr, ptr %2, align 8, !tbaa !8
  %4 = getelementptr inbounds nuw %struct.lean_object, ptr %3, i32 0, i32 0
  %5 = load i32, ptr %4, align 4, !tbaa !15
  %6 = icmp sgt i32 %5, 1
  %7 = zext i1 %6 to i32
  %8 = sext i32 %7 to i64
  %9 = call i64 @llvm.expect.i64(i64 %8, i64 1)
  %10 = icmp ne i64 %9, 0
  br i1 %10, label %11, label %16

11:                                               ; preds = %1
  %12 = load ptr, ptr %2, align 8, !tbaa !8
  %13 = getelementptr inbounds nuw %struct.lean_object, ptr %12, i32 0, i32 0
  %14 = load i32, ptr %13, align 4, !tbaa !15
  %15 = add i32 %14, -1
  store i32 %15, ptr %13, align 4, !tbaa !15
  br label %24

16:                                               ; preds = %1
  %17 = load ptr, ptr %2, align 8, !tbaa !8
  %18 = getelementptr inbounds nuw %struct.lean_object, ptr %17, i32 0, i32 0
  %19 = load i32, ptr %18, align 4, !tbaa !15
  %20 = icmp ne i32 %19, 0
  br i1 %20, label %21, label %23

21:                                               ; preds = %16
  %22 = load ptr, ptr %2, align 8, !tbaa !8
  call void @lean_dec_ref_cold(ptr noundef %22)
  br label %23

23:                                               ; preds = %21, %16
  br label %24

24:                                               ; preds = %23, %11
  ret void
}

; Function Attrs: alwaysinline nounwind uwtable
define internal zeroext i1 @lean_is_scalar(ptr noundef %0) #1 {
  %2 = alloca ptr, align 8
  store ptr %0, ptr %2, align 8, !tbaa !8
  %3 = load ptr, ptr %2, align 8, !tbaa !8
  %4 = ptrtoint ptr %3 to i64
  %5 = and i64 %4, 1
  %6 = icmp eq i64 %5, 1
  ret i1 %6
}

; Function Attrs: alwaysinline nounwind uwtable
define internal void @lean_dec(ptr noundef %0) #1 {
  %2 = alloca ptr, align 8
  store ptr %0, ptr %2, align 8, !tbaa !8
  %3 = load ptr, ptr %2, align 8, !tbaa !8
  %4 = call zeroext i1 @lean_is_scalar(ptr noundef %3)
  br i1 %4, label %7, label %5

5:                                                ; preds = %1
  %6 = load ptr, ptr %2, align 8, !tbaa !8
  call void @lean_dec_ref(ptr noundef %6)
  br label %7

7:                                                ; preds = %5, %1
  ret void
}

; Function Attrs: nounwind uwtable
define zeroext i8 @l___private_Lean_Elab_Declaration_0__Lean_Elab_Command_isMutualPreambleCommand(ptr noundef %0) #2 {
  %2 = alloca i8, align 1
  %3 = alloca ptr, align 8
  %4 = alloca ptr, align 8
  %5 = alloca ptr, align 8
  %6 = alloca i8, align 1
  %7 = alloca ptr, align 8
  %8 = alloca i8, align 1
  %9 = alloca ptr, align 8
  %10 = alloca i8, align 1
  %11 = alloca ptr, align 8
  %12 = alloca i8, align 1
  %13 = alloca ptr, align 8
  %14 = alloca i8, align 1
  %15 = alloca i32, align 4
  %16 = alloca i8, align 1
  %17 = alloca i8, align 1
  %18 = alloca i8, align 1
  %19 = alloca i8, align 1
  store ptr %0, ptr %3, align 8, !tbaa !8
  br label %20

20:                                               ; preds = %1
  call void @llvm.lifetime.start.p0(i64 8, ptr %4) #7
  call void @llvm.lifetime.start.p0(i64 8, ptr %5) #7
  call void @llvm.lifetime.start.p0(i64 1, ptr %6) #7
  %21 = load ptr, ptr %3, align 8, !tbaa !8
  %22 = call ptr @l_Lean_Syntax_getKind(ptr noundef %21)
  store ptr %22, ptr %4, align 8, !tbaa !8
  %23 = load ptr, ptr @l___private_Lean_Elab_Declaration_0__Lean_Elab_Command_isMutualPreambleCommand___closed__2, align 8, !tbaa !8
  store ptr %23, ptr %5, align 8, !tbaa !8
  %24 = load ptr, ptr %4, align 8, !tbaa !8
  %25 = load ptr, ptr %5, align 8, !tbaa !8
  %26 = call zeroext i8 @lean_name_eq(ptr noundef %24, ptr noundef %25)
  store i8 %26, ptr %6, align 1, !tbaa !12
  %27 = load i8, ptr %6, align 1, !tbaa !12
  %28 = zext i8 %27 to i32
  %29 = icmp eq i32 %28, 0
  br i1 %29, label %30, label %73

30:                                               ; preds = %20
  call void @llvm.lifetime.start.p0(i64 8, ptr %7) #7
  call void @llvm.lifetime.start.p0(i64 1, ptr %8) #7
  %31 = load ptr, ptr @l___private_Lean_Elab_Declaration_0__Lean_Elab_Command_isMutualPreambleCommand___closed__4, align 8, !tbaa !8
  store ptr %31, ptr %7, align 8, !tbaa !8
  %32 = load ptr, ptr %4, align 8, !tbaa !8
  %33 = load ptr, ptr %7, align 8, !tbaa !8
  %34 = call zeroext i8 @lean_name_eq(ptr noundef %32, ptr noundef %33)
  store i8 %34, ptr %8, align 1, !tbaa !12
  %35 = load i8, ptr %8, align 1, !tbaa !12
  %36 = zext i8 %35 to i32
  %37 = icmp eq i32 %36, 0
  br i1 %37, label %38, label %69

38:                                               ; preds = %30
  call void @llvm.lifetime.start.p0(i64 8, ptr %9) #7
  call void @llvm.lifetime.start.p0(i64 1, ptr %10) #7
  %39 = load ptr, ptr @l___private_Lean_Elab_Declaration_0__Lean_Elab_Command_isMutualPreambleCommand___closed__6, align 8, !tbaa !8
  store ptr %39, ptr %9, align 8, !tbaa !8
  %40 = load ptr, ptr %4, align 8, !tbaa !8
  %41 = load ptr, ptr %9, align 8, !tbaa !8
  %42 = call zeroext i8 @lean_name_eq(ptr noundef %40, ptr noundef %41)
  store i8 %42, ptr %10, align 1, !tbaa !12
  %43 = load i8, ptr %10, align 1, !tbaa !12
  %44 = zext i8 %43 to i32
  %45 = icmp eq i32 %44, 0
  br i1 %45, label %46, label %65

46:                                               ; preds = %38
  call void @llvm.lifetime.start.p0(i64 8, ptr %11) #7
  call void @llvm.lifetime.start.p0(i64 1, ptr %12) #7
  %47 = load ptr, ptr @l___private_Lean_Elab_Declaration_0__Lean_Elab_Command_isMutualPreambleCommand___closed__8, align 8, !tbaa !8
  store ptr %47, ptr %11, align 8, !tbaa !8
  %48 = load ptr, ptr %4, align 8, !tbaa !8
  %49 = load ptr, ptr %11, align 8, !tbaa !8
  %50 = call zeroext i8 @lean_name_eq(ptr noundef %48, ptr noundef %49)
  store i8 %50, ptr %12, align 1, !tbaa !12
  %51 = load i8, ptr %12, align 1, !tbaa !12
  %52 = zext i8 %51 to i32
  %53 = icmp eq i32 %52, 0
  br i1 %53, label %54, label %61

54:                                               ; preds = %46
  call void @llvm.lifetime.start.p0(i64 8, ptr %13) #7
  call void @llvm.lifetime.start.p0(i64 1, ptr %14) #7
  %55 = load ptr, ptr @l___private_Lean_Elab_Declaration_0__Lean_Elab_Command_isMutualPreambleCommand___closed__10, align 8, !tbaa !8
  store ptr %55, ptr %13, align 8, !tbaa !8
  %56 = load ptr, ptr %4, align 8, !tbaa !8
  %57 = load ptr, ptr %13, align 8, !tbaa !8
  %58 = call zeroext i8 @lean_name_eq(ptr noundef %56, ptr noundef %57)
  store i8 %58, ptr %14, align 1, !tbaa !12
  %59 = load ptr, ptr %4, align 8, !tbaa !8
  call void @lean_dec(ptr noundef %59)
  %60 = load i8, ptr %14, align 1, !tbaa !12
  store i8 %60, ptr %2, align 1
  store i32 1, ptr %15, align 4
  call void @llvm.lifetime.end.p0(i64 1, ptr %14) #7
  call void @llvm.lifetime.end.p0(i64 8, ptr %13) #7
  br label %64

61:                                               ; preds = %46
  call void @llvm.lifetime.start.p0(i64 1, ptr %16) #7
  %62 = load ptr, ptr %4, align 8, !tbaa !8
  call void @lean_dec(ptr noundef %62)
  store i8 1, ptr %16, align 1, !tbaa !12
  %63 = load i8, ptr %16, align 1, !tbaa !12
  store i8 %63, ptr %2, align 1
  store i32 1, ptr %15, align 4
  call void @llvm.lifetime.end.p0(i64 1, ptr %16) #7
  br label %64

64:                                               ; preds = %61, %54
  call void @llvm.lifetime.end.p0(i64 1, ptr %12) #7
  call void @llvm.lifetime.end.p0(i64 8, ptr %11) #7
  br label %68

65:                                               ; preds = %38
  call void @llvm.lifetime.start.p0(i64 1, ptr %17) #7
  %66 = load ptr, ptr %4, align 8, !tbaa !8
  call void @lean_dec(ptr noundef %66)
  store i8 1, ptr %17, align 1, !tbaa !12
  %67 = load i8, ptr %17, align 1, !tbaa !12
  store i8 %67, ptr %2, align 1
  store i32 1, ptr %15, align 4
  call void @llvm.lifetime.end.p0(i64 1, ptr %17) #7
  br label %68

68:                                               ; preds = %65, %64
  call void @llvm.lifetime.end.p0(i64 1, ptr %10) #7
  call void @llvm.lifetime.end.p0(i64 8, ptr %9) #7
  br label %72

69:                                               ; preds = %30
  call void @llvm.lifetime.start.p0(i64 1, ptr %18) #7
  %70 = load ptr, ptr %4, align 8, !tbaa !8
  call void @lean_dec(ptr noundef %70)
  store i8 1, ptr %18, align 1, !tbaa !12
  %71 = load i8, ptr %18, align 1, !tbaa !12
  store i8 %71, ptr %2, align 1
  store i32 1, ptr %15, align 4
  call void @llvm.lifetime.end.p0(i64 1, ptr %18) #7
  br label %72

72:                                               ; preds = %69, %68
  call void @llvm.lifetime.end.p0(i64 1, ptr %8) #7
  call void @llvm.lifetime.end.p0(i64 8, ptr %7) #7
  br label %76

73:                                               ; preds = %20
  call void @llvm.lifetime.start.p0(i64 1, ptr %19) #7
  %74 = load ptr, ptr %4, align 8, !tbaa !8
  call void @lean_dec(ptr noundef %74)
  store i8 1, ptr %19, align 1, !tbaa !12
  %75 = load i8, ptr %19, align 1, !tbaa !12
  store i8 %75, ptr %2, align 1
  store i32 1, ptr %15, align 4
  call void @llvm.lifetime.end.p0(i64 1, ptr %19) #7
  br label %76

76:                                               ; preds = %73, %72
  call void @llvm.lifetime.end.p0(i64 1, ptr %6) #7
  call void @llvm.lifetime.end.p0(i64 8, ptr %5) #7
  call void @llvm.lifetime.end.p0(i64 8, ptr %4) #7
  %77 = load i8, ptr %2, align 1
  ret i8 %77
}