; Function Attrs: nounwind uwtable
define zeroext i8 @l___private_Lean_Elab_Declaration_0__Lean_Elab_Command_isMutualPreambleCommand(ptr noundef %0) local_unnamed_addr #0 {
  %2 = tail call ptr @l_Lean_Syntax_getKind(ptr noundef %0) #6
  %3 = load ptr, ptr @l___private_Lean_Elab_Declaration_0__Lean_Elab_Command_isMutualPreambleCommand___closed__2, align 8, !tbaa !9
  %4 = tail call zeroext i8 @lean_name_eq(ptr noundef %2, ptr noundef %3) #6
  %5 = icmp eq i8 %4, 0
  br i1 %5, label %6, label %60

6:                                                ; preds = %1
  %7 = load ptr, ptr @l___private_Lean_Elab_Declaration_0__Lean_Elab_Command_isMutualPreambleCommand___closed__4, align 8, !tbaa !9
  %8 = tail call zeroext i8 @lean_name_eq(ptr noundef %2, ptr noundef %7) #6
  %9 = icmp eq i8 %8, 0
  br i1 %9, label %10, label %50

10:                                               ; preds = %6
  %11 = load ptr, ptr @l___private_Lean_Elab_Declaration_0__Lean_Elab_Command_isMutualPreambleCommand___closed__6, align 8, !tbaa !9
  %12 = tail call zeroext i8 @lean_name_eq(ptr noundef %2, ptr noundef %11) #6
  %13 = icmp eq i8 %12, 0
  br i1 %13, label %14, label %40

14:                                               ; preds = %10
  %15 = load ptr, ptr @l___private_Lean_Elab_Declaration_0__Lean_Elab_Command_isMutualPreambleCommand___closed__8, align 8, !tbaa !9
  %16 = tail call zeroext i8 @lean_name_eq(ptr noundef %2, ptr noundef %15) #6
  %17 = icmp eq i8 %16, 0
  br i1 %17, label %18, label %30

18:                                               ; preds = %14
  %19 = load ptr, ptr @l___private_Lean_Elab_Declaration_0__Lean_Elab_Command_isMutualPreambleCommand___closed__10, align 8, !tbaa !9
  %20 = tail call zeroext i8 @lean_name_eq(ptr noundef %2, ptr noundef %19) #6
  %21 = ptrtoint ptr %2 to i64
  %22 = and i64 %21, 1
  %.not40 = icmp eq i64 %22, 0
  br i1 %.not40, label %23, label %lean_dec.exit28

23:                                               ; preds = %18
  %24 = load i32, ptr %2, align 4, !tbaa !4
  %25 = icmp sgt i32 %24, 1
  br i1 %25, label %26, label %28, !prof !11

26:                                               ; preds = %23
  %27 = add nsw i32 %24, -1
  store i32 %27, ptr %2, align 4, !tbaa !4
  br label %lean_dec.exit28

28:                                               ; preds = %23
  %.not.i = icmp eq i32 %24, 0
  br i1 %.not.i, label %lean_dec.exit28, label %29

29:                                               ; preds = %28
  tail call void @lean_dec_ref_cold(ptr noundef nonnull %2) #6
  br label %lean_dec.exit28

30:                                               ; preds = %14
  %31 = ptrtoint ptr %2 to i64
  %32 = and i64 %31, 1
  %.not39 = icmp eq i64 %32, 0
  br i1 %.not39, label %33, label %lean_dec.exit28

33:                                               ; preds = %30
  %34 = load i32, ptr %2, align 4, !tbaa !4
  %35 = icmp sgt i32 %34, 1
  br i1 %35, label %36, label %38, !prof !11

36:                                               ; preds = %33
  %37 = add nsw i32 %34, -1
  store i32 %37, ptr %2, align 4, !tbaa !4
  br label %lean_dec.exit28

38:                                               ; preds = %33
  %.not.i29 = icmp eq i32 %34, 0
  br i1 %.not.i29, label %lean_dec.exit28, label %39

39:                                               ; preds = %38
  tail call void @lean_dec_ref_cold(ptr noundef nonnull %2) #6
  br label %lean_dec.exit28

40:                                               ; preds = %10
  %41 = ptrtoint ptr %2 to i64
  %42 = and i64 %41, 1
  %.not38 = icmp eq i64 %42, 0
  br i1 %.not38, label %43, label %lean_dec.exit28

43:                                               ; preds = %40
  %44 = load i32, ptr %2, align 4, !tbaa !4
  %45 = icmp sgt i32 %44, 1
  br i1 %45, label %46, label %48, !prof !11

46:                                               ; preds = %43
  %47 = add nsw i32 %44, -1
  store i32 %47, ptr %2, align 4, !tbaa !4
  br label %lean_dec.exit28

48:                                               ; preds = %43
  %.not.i31 = icmp eq i32 %44, 0
  br i1 %.not.i31, label %lean_dec.exit28, label %49

49:                                               ; preds = %48
  tail call void @lean_dec_ref_cold(ptr noundef nonnull %2) #6
  br label %lean_dec.exit28

50:                                               ; preds = %6
  %51 = ptrtoint ptr %2 to i64
  %52 = and i64 %51, 1
  %.not37 = icmp eq i64 %52, 0
  br i1 %.not37, label %53, label %lean_dec.exit28

53:                                               ; preds = %50
  %54 = load i32, ptr %2, align 4, !tbaa !4
  %55 = icmp sgt i32 %54, 1
  br i1 %55, label %56, label %58, !prof !11

56:                                               ; preds = %53
  %57 = add nsw i32 %54, -1
  store i32 %57, ptr %2, align 4, !tbaa !4
  br label %lean_dec.exit28

58:                                               ; preds = %53
  %.not.i33 = icmp eq i32 %54, 0
  br i1 %.not.i33, label %lean_dec.exit28, label %59

59:                                               ; preds = %58
  tail call void @lean_dec_ref_cold(ptr noundef nonnull %2) #6
  br label %lean_dec.exit28

60:                                               ; preds = %1
  %61 = ptrtoint ptr %2 to i64
  %62 = and i64 %61, 1
  %.not = icmp eq i64 %62, 0
  br i1 %.not, label %63, label %lean_dec.exit28

63:                                               ; preds = %60
  %64 = load i32, ptr %2, align 4, !tbaa !4
  %65 = icmp sgt i32 %64, 1
  br i1 %65, label %66, label %68, !prof !11

66:                                               ; preds = %63
  %67 = add nsw i32 %64, -1
  store i32 %67, ptr %2, align 4, !tbaa !4
  br label %lean_dec.exit28

68:                                               ; preds = %63
  %.not.i35 = icmp eq i32 %64, 0
  br i1 %.not.i35, label %lean_dec.exit28, label %69

69:                                               ; preds = %68
  tail call void @lean_dec_ref_cold(ptr noundef nonnull %2) #6
  br label %lean_dec.exit28

lean_dec.exit28:                                  ; preds = %60, %66, %68, %69, %50, %56, %58, %59, %40, %46, %48, %49, %30, %36, %38, %39, %18, %26, %28, %29
  %.3 = phi i8 [ %20, %29 ], [ %20, %28 ], [ %20, %26 ], [ %20, %18 ], [ 1, %39 ], [ 1, %38 ], [ 1, %36 ], [ 1, %30 ], [ 1, %49 ], [ 1, %48 ], [ 1, %46 ], [ 1, %40 ], [ 1, %59 ], [ 1, %58 ], [ 1, %56 ], [ 1, %50 ], [ 1, %69 ], [ 1, %68 ], [ 1, %66 ], [ 1, %60 ]
  ret i8 %.3
}